target datalayout = "e-m:e-p270:32:32-p271:32:32-p272:64:64-i64:64-i128:128-f80:128-n8:16:32:64-S128"
target triple = "x86_64-pc-linux-gnu"

%class.Template = type <{ i32, i32, i32, [4 x i8], ptr, i32, [4 x i8] }>

@_ZN13TemplateTable5_descE = hidden global ptr null, align 8
@_ZN13TemplateTable5_masmE = hidden global ptr null, align 8

; Function Attrs: mustprogress nounwind uwtable
define hidden void @_ZN8Template8generateEP25InterpreterMacroAssembler(ptr noundef nonnull align 8 dereferenceable(28) %0, ptr noundef %1) #1 align 2 {
  %3 = alloca ptr, align 8
  %4 = alloca ptr, align 8
  store ptr %0, ptr %3, align 8
  store ptr %1, ptr %4, align 8
  %5 = load ptr, ptr %3, align 8
  store ptr %5, ptr @_ZN13TemplateTable5_descE, align 8
  %6 = load ptr, ptr %4, align 8
  store ptr %6, ptr @_ZN13TemplateTable5_masmE, align 8
  %7 = getelementptr inbounds %class.Template, ptr %5, i32 0, i32 4
  %8 = load ptr, ptr %7, align 8
  %9 = getelementptr inbounds %class.Template, ptr %5, i32 0, i32 5
  %10 = load i32, ptr %9, align 8
  call void %8(i32 noundef %10)
  %11 = load ptr, ptr %4, align 8
  call void @_ZN17AbstractAssembler5flushEv(ptr noundef nonnull align 8 dereferenceable(24) %11)
  ret void
}