; Function Attrs: mustprogress nounwind uwtable
define hidden void @_ZN8Template8generateEP25InterpreterMacroAssembler(ptr noundef nonnull align 8 dereferenceable(28) %0, ptr noundef %1) local_unnamed_addr #2 align 2 {
  store ptr %0, ptr @_ZN13TemplateTable5_descE, align 8
  store ptr %1, ptr @_ZN13TemplateTable5_masmE, align 8
  %3 = getelementptr inbounds i8, ptr %0, i64 16
  %4 = load ptr, ptr %3, align 8
  %5 = getelementptr inbounds i8, ptr %0, i64 24
  %6 = load i32, ptr %5, align 8
  tail call void %4(i32 noundef %6) #6
  tail call void @_ZN17AbstractAssembler5flushEv(ptr noundef nonnull align 8 dereferenceable(24) %1) #6
  ret void
}